target datalayout = "e-m:e-p270:32:32-p271:32:32-p272:64:64-i64:64-i128:128-f80:128-n8:16:32:64-S128"
target triple = "x86_64-pc-linux-gnu"

%struct.H5O_t = type { %struct.H5C_cache_entry_t, i64, i64, i8, i64, i8, i32, i8, i8, i64, i64, i64, i64, i32, i32, i64, i64, ptr, i64, i64, i64, i64, ptr, i8, ptr }
%struct.H5C_cache_entry_t = type { ptr, i64, i64, ptr, i8, ptr, i8, i8, i8, i8, i32, i8, i8, i8, i8, i8, i32, ptr, i32, i32, i32, i32, i32, i8, i8, ptr, ptr, ptr, ptr, ptr, ptr, i8, i32, i8, i64, ptr, i64, i64, i32, i8, i32, i32, i8, ptr, ptr, ptr }

@.str.4 = private unnamed_addr constant [100 x i8] c"generated/home/dtcxzyw/WorkSpace/Projects/compilers/llvm-opt-benchmark/bench/hdf5/hdf5/src/H5Oint.c\00", align 1
@H5E_OHDR_g = external global i64, align 8
@H5E_CANTPROTECT_g = external global i64, align 8
@.str.41 = private unnamed_addr constant [29 x i8] c"unable to load object header\00", align 1
@H5E_CANTUNPROTECT_g = external global i64, align 8
@.str.47 = private unnamed_addr constant [32 x i8] c"unable to release object header\00", align 1
@__func__.H5O_get_nlinks = private unnamed_addr constant [15 x i8] c"H5O_get_nlinks\00", align 1

; Function Attrs: nounwind uwtable
define i32 @H5O_get_nlinks(ptr noundef %0, ptr noundef %1) #0 {
  %3 = alloca ptr, align 8
  %4 = alloca ptr, align 8
  %5 = alloca ptr, align 8
  %6 = alloca i32, align 4
  %7 = alloca i8, align 1
  store ptr %0, ptr %3, align 8
  store ptr %1, ptr %4, align 8
  store ptr null, ptr %5, align 8
  store i32 0, ptr %6, align 4
  store i8 0, ptr %7, align 1
  %8 = load ptr, ptr %3, align 8
  %9 = call ptr @H5O_protect(ptr noundef %8, i32 noundef 128, i1 noundef zeroext false)
  store ptr %9, ptr %5, align 8
  %10 = icmp eq ptr null, %9
  br i1 %10, label %11, label %26

11:                                               ; preds = %2
  br label %12

12:                                               ; preds = %11
  br label %13

13:                                               ; preds = %12
  br label %14

14:                                               ; preds = %13
  %15 = load i64, ptr @H5E_OHDR_g, align 8
  %16 = load i64, ptr @H5E_CANTPROTECT_g, align 8
  %17 = call i32 (ptr, ptr, i32, i64, i64, ptr, ...) @H5E_printf_stack(ptr noundef @.str.4, ptr noundef @__func__.H5O_get_nlinks, i32 noundef 2304, i64 noundef %15, i64 noundef %16, ptr noundef @.str.41)
  br label %18

18:                                               ; preds = %14
  store i8 1, ptr %7, align 1
  %19 = load i8, ptr %7, align 1
  %20 = trunc i8 %19 to i1
  %21 = zext i1 %20 to i8
  store i8 %21, ptr %7, align 1
  br label %22

22:                                               ; preds = %18
  br label %23

23:                                               ; preds = %22
  store i32 -1, ptr %6, align 4
  br label %31

24:                                               ; No predecessors!
  br label %25

25:                                               ; preds = %24
  br label %26

26:                                               ; preds = %25, %2
  %27 = load ptr, ptr %5, align 8
  %28 = getelementptr inbounds %struct.H5O_t, ptr %27, i32 0, i32 18
  %29 = load i64, ptr %28, align 8
  %30 = load ptr, ptr %4, align 8
  store i64 %29, ptr %30, align 8
  br label %31

31:                                               ; preds = %26, %23
  %32 = load ptr, ptr %5, align 8
  %33 = icmp ne ptr %32, null
  br i1 %33, label %34, label %52

34:                                               ; preds = %31
  %35 = load ptr, ptr %3, align 8
  %36 = load ptr, ptr %5, align 8
  %37 = call i32 @H5O_unprotect(ptr noundef %35, ptr noundef %36, i32 noundef 0)
  %38 = icmp slt i32 %37, 0
  br i1 %38, label %39, label %52

39:                                               ; preds = %34
  br label %40

40:                                               ; preds = %39
  br label %41

41:                                               ; preds = %40
  br label %42

42:                                               ; preds = %41
  %43 = load i64, ptr @H5E_OHDR_g, align 8
  %44 = load i64, ptr @H5E_CANTUNPROTECT_g, align 8
  %45 = call i32 (ptr, ptr, i32, i64, i64, ptr, ...) @H5E_printf_stack(ptr noundef @.str.4, ptr noundef @__func__.H5O_get_nlinks, i32 noundef 2311, i64 noundef %43, i64 noundef %44, ptr noundef @.str.47)
  br label %46

46:                                               ; preds = %42
  store i8 1, ptr %7, align 1
  %47 = load i8, ptr %7, align 1
  %48 = trunc i8 %47 to i1
  %49 = zext i1 %48 to i8
  store i8 %49, ptr %7, align 1
  br label %50

50:                                               ; preds = %46
  store i32 -1, ptr %6, align 4
  br label %51

51:                                               ; preds = %50
  br label %52

52:                                               ; preds = %51, %34, %31
  %53 = load i32, ptr %6, align 4
  ret i32 %53
}