; Function Attrs: nounwind uwtable
define range(i32 -1, 1) i32 @H5O_get_nlinks(ptr nocapture noundef readonly %0, ptr nocapture noundef writeonly %1) local_unnamed_addr #1 {
  %3 = tail call ptr @H5O_protect(ptr noundef %0, i32 noundef 128, i1 noundef zeroext false)
  %4 = icmp eq ptr %3, null
  br i1 %4, label %.thread, label %8

.thread:                                          ; preds = %2
  %5 = load i64, ptr @H5E_OHDR_g, align 8
  %6 = load i64, ptr @H5E_CANTPROTECT_g, align 8
  %7 = tail call i32 (ptr, ptr, i32, i64, i64, ptr, ...) @H5E_printf_stack(ptr noundef nonnull @.str.4, ptr noundef nonnull @__func__.H5O_get_nlinks, i32 noundef 2304, i64 noundef %5, i64 noundef %6, ptr noundef nonnull @.str.41) #11
  br label %17

8:                                                ; preds = %2
  %9 = getelementptr inbounds i8, ptr %3, i64 360
  %10 = load i64, ptr %9, align 8
  store i64 %10, ptr %1, align 8
  %11 = tail call i32 @H5O_unprotect(ptr noundef %0, ptr noundef nonnull %3, i32 noundef 0)
  %12 = icmp slt i32 %11, 0
  br i1 %12, label %13, label %17

13:                                               ; preds = %8
  %14 = load i64, ptr @H5E_OHDR_g, align 8
  %15 = load i64, ptr @H5E_CANTUNPROTECT_g, align 8
  %16 = tail call i32 (ptr, ptr, i32, i64, i64, ptr, ...) @H5E_printf_stack(ptr noundef nonnull @.str.4, ptr noundef nonnull @__func__.H5O_get_nlinks, i32 noundef 2311, i64 noundef %14, i64 noundef %15, ptr noundef nonnull @.str.47) #11
  br label %17

17:                                               ; preds = %.thread, %13, %8
  %.1 = phi i32 [ -1, %13 ], [ 0, %8 ], [ -1, %.thread ]
  ret i32 %.1
}